; Function Attrs: nounwind sspstrong uwtable
define internal void @ide_hd_class_init(ptr noundef %klass, ptr readnone captures(none) %data) #0 {
entry:
  %call.i = tail call ptr @object_class_dynamic_cast_assert(ptr noundef %klass, ptr noundef nonnull @.str.11, ptr noundef nonnull @.str.6, i32 noundef 77, ptr noundef nonnull @__func__.DEVICE_CLASS) #6
  %call.i4 = tail call ptr @object_class_dynamic_cast_assert(ptr noundef %klass, ptr noundef nonnull @.str.9, ptr noundef nonnull @.str.8, i32 noundef 506, ptr noundef nonnull @__func__.IDE_DEVICE_CLASS) #6
  %realize = getelementptr inbounds nuw i8, ptr %call.i4, i64 176
  store ptr @ide_hd_realize, ptr %realize, align 8
  %fw_name = getelementptr inbounds nuw i8, ptr %call.i, i64 104
  store ptr @.str.4, ptr %fw_name, align 8
  %desc = getelementptr inbounds nuw i8, ptr %call.i, i64 112
  store ptr @.str.10, ptr %desc, align 8
  tail call void @device_class_set_props(ptr noundef %call.i, ptr noundef nonnull @ide_hd_properties) #6
  ret void
}